(dp0
S'Sarah 1'
p1
ccopy_reg
_reconstructor
p2
(c__main__
AthleteList
p3
c__builtin__
list
p4
(lp5
S'2:58'
p6
aS'2.58'
p7
aS'2:39'
p8
aS'2-25'
p9
aS'2-55'
p10
aS'2:54'
p11
aS'2.18'
p12
aS'2:55'
p13
aS'2:55'
p14
aS'2:22'
p15
aS'2-21'
p16
aS'2.22'
p17
atp18
Rp19
(dp20
S'dob'
p21
S'2002-6-17'
p22
sS'name'
p23
g1
sbs.